target datalayout = "e-m:e-p270:32:32-p271:32:32-p272:64:64-i64:64-i128:128-f80:128-n8:16:32:64-S128"
target triple = "x86_64-pc-linux-gnu"

%struct.libpq_source = type { %struct.rewind_source, ptr, i32, [1000 x %struct.fetch_range_request], %struct.StringInfoData, %struct.StringInfoData, %struct.StringInfoData }
%struct.rewind_source = type { ptr, ptr, ptr, ptr, ptr, ptr, ptr }
%struct.fetch_range_request = type { ptr, i64, i64 }
%struct.StringInfoData = type { ptr, i32, i32, i32 }

@.str = private unnamed_addr constant [26 x i8] c"SET statement_timeout = 0\00", align 1
@.str.1 = private unnamed_addr constant [21 x i8] c"SET lock_timeout = 0\00", align 1
@.str.2 = private unnamed_addr constant [44 x i8] c"SET idle_in_transaction_session_timeout = 0\00", align 1
@.str.3 = private unnamed_addr constant [28 x i8] c"SET transaction_timeout = 0\00", align 1
@.str.4 = private unnamed_addr constant [39 x i8] c"SET default_transaction_read_only = on\00", align 1
@.str.5 = private unnamed_addr constant [56 x i8] c"SELECT pg_catalog.set_config('search_path', '', false);\00", align 1
@.str.6 = private unnamed_addr constant [34 x i8] c"could not clear \22search_path\22: %s\00", align 1
@.str.7 = private unnamed_addr constant [22 x i8] c"SHOW full_page_writes\00", align 1
@.str.8 = private unnamed_addr constant [3 x i8] c"on\00", align 1
@.str.9 = private unnamed_addr constant [56 x i8] c"\22full_page_writes\22 must be enabled in the source server\00", align 1
@.str.10 = private unnamed_addr constant [18 x i8] c"fetch_chunks_stmt\00", align 1
@.str.11 = private unnamed_addr constant [147 x i8] c"SELECT path, begin,\0A  pg_read_binary_file(path, begin, len, true) AS chunk\0AFROM unnest ($1::text[], $2::int8[], $3::int4[]) as x(path, begin, len)\00", align 1
@.str.12 = private unnamed_addr constant [55 x i8] c"could not prepare statement to fetch file contents: %s\00", align 1
@.str.13 = private unnamed_addr constant [46 x i8] c"error running query (%s) in source server: %s\00", align 1

; Function Attrs: nounwind uwtable
define internal void @run_simple_command(ptr noundef %0, ptr noundef %1) #0 {
  %3 = alloca ptr, align 8
  %4 = alloca ptr, align 8
  %5 = alloca ptr, align 8
  store ptr %0, ptr %3, align 8
  store ptr %1, ptr %4, align 8
  call void @llvm.lifetime.start.p0(i64 8, ptr %5) #10
  %6 = load ptr, ptr %3, align 8
  %7 = load ptr, ptr %4, align 8
  %8 = call ptr @PQexec(ptr noundef %6, ptr noundef %7)
  store ptr %8, ptr %5, align 8
  %9 = load ptr, ptr %5, align 8
  %10 = call i32 @PQresultStatus(ptr noundef %9)
  %11 = icmp ne i32 %10, 1
  br i1 %11, label %12, label %19

12:                                               ; preds = %2
  br label %13

13:                                               ; preds = %12
  %14 = load ptr, ptr %4, align 8
  %15 = load ptr, ptr %5, align 8
  %16 = call ptr @PQresultErrorMessage(ptr noundef %15)
  call void (i32, i32, ptr, ...) @pg_log_generic(i32 noundef 4, i32 noundef 0, ptr noundef @.str.13, ptr noundef %14, ptr noundef %16)
  call void @exit(i32 noundef 1) #11
  unreachable

17:                                               ; No predecessors!
  br label %18

18:                                               ; preds = %17
  br label %19

19:                                               ; preds = %18, %2
  %20 = load ptr, ptr %5, align 8
  call void @PQclear(ptr noundef %20)
  call void @llvm.lifetime.end.p0(i64 8, ptr %5) #10
  ret void
}

; Function Attrs: nounwind uwtable
define internal void @init_libpq_conn(ptr noundef %0) #0 {
  %2 = alloca ptr, align 8
  %3 = alloca ptr, align 8
  %4 = alloca ptr, align 8
  store ptr %0, ptr %2, align 8
  call void @llvm.lifetime.start.p0(i64 8, ptr %3) #10
  call void @llvm.lifetime.start.p0(i64 8, ptr %4) #10
  %5 = load ptr, ptr %2, align 8
  call void @run_simple_command(ptr noundef %5, ptr noundef @.str)
  %6 = load ptr, ptr %2, align 8
  call void @run_simple_command(ptr noundef %6, ptr noundef @.str.1)
  %7 = load ptr, ptr %2, align 8
  call void @run_simple_command(ptr noundef %7, ptr noundef @.str.2)
  %8 = load ptr, ptr %2, align 8
  call void @run_simple_command(ptr noundef %8, ptr noundef @.str.3)
  %9 = load ptr, ptr %2, align 8
  call void @run_simple_command(ptr noundef %9, ptr noundef @.str.4)
  %10 = load ptr, ptr %2, align 8
  %11 = call ptr @PQexec(ptr noundef %10, ptr noundef @.str.5)
  store ptr %11, ptr %3, align 8
  %12 = load ptr, ptr %3, align 8
  %13 = call i32 @PQresultStatus(ptr noundef %12)
  %14 = icmp ne i32 %13, 2
  br i1 %14, label %15, label %21

15:                                               ; preds = %1
  br label %16

16:                                               ; preds = %15
  %17 = load ptr, ptr %3, align 8
  %18 = call ptr @PQresultErrorMessage(ptr noundef %17)
  call void (i32, i32, ptr, ...) @pg_log_generic(i32 noundef 4, i32 noundef 0, ptr noundef @.str.6, ptr noundef %18)
  call void @exit(i32 noundef 1) #11
  unreachable

19:                                               ; No predecessors!
  br label %20

20:                                               ; preds = %19
  br label %21

21:                                               ; preds = %20, %1
  %22 = load ptr, ptr %3, align 8
  call void @PQclear(ptr noundef %22)
  %23 = load ptr, ptr %2, align 8
  %24 = call ptr @run_simple_query(ptr noundef %23, ptr noundef @.str.7)
  store ptr %24, ptr %4, align 8
  %25 = load ptr, ptr %4, align 8
  %26 = call i32 @strcmp(ptr noundef %25, ptr noundef @.str.8) #12
  %27 = icmp ne i32 %26, 0
  br i1 %27, label %28, label %32

28:                                               ; preds = %21
  br label %29

29:                                               ; preds = %28
  call void (i32, i32, ptr, ...) @pg_log_generic(i32 noundef 4, i32 noundef 0, ptr noundef @.str.9)
  call void @exit(i32 noundef 1) #11
  unreachable

30:                                               ; No predecessors!
  br label %31

31:                                               ; preds = %30
  br label %32

32:                                               ; preds = %31, %21
  %33 = load ptr, ptr %4, align 8
  call void @pg_free(ptr noundef %33)
  %34 = load ptr, ptr %2, align 8
  %35 = call ptr @PQprepare(ptr noundef %34, ptr noundef @.str.10, ptr noundef @.str.11, i32 noundef 3, ptr noundef null)
  store ptr %35, ptr %3, align 8
  %36 = load ptr, ptr %3, align 8
  %37 = call i32 @PQresultStatus(ptr noundef %36)
  %38 = icmp ne i32 %37, 1
  br i1 %38, label %39, label %45

39:                                               ; preds = %32
  br label %40

40:                                               ; preds = %39
  %41 = load ptr, ptr %3, align 8
  %42 = call ptr @PQresultErrorMessage(ptr noundef %41)
  call void (i32, i32, ptr, ...) @pg_log_generic(i32 noundef 4, i32 noundef 0, ptr noundef @.str.12, ptr noundef %42)
  call void @exit(i32 noundef 1) #11
  unreachable

43:                                               ; No predecessors!
  br label %44

44:                                               ; preds = %43
  br label %45

45:                                               ; preds = %44, %32
  %46 = load ptr, ptr %3, align 8
  call void @PQclear(ptr noundef %46)
  call void @llvm.lifetime.end.p0(i64 8, ptr %4) #10
  call void @llvm.lifetime.end.p0(i64 8, ptr %3) #10
  ret void
}

; Function Attrs: nounwind uwtable
define dso_local ptr @init_libpq_source(ptr noundef %0) #0 {
  %2 = alloca ptr, align 8
  %3 = alloca ptr, align 8
  store ptr %0, ptr %2, align 8
  call void @llvm.lifetime.start.p0(i64 8, ptr %3) #10
  %4 = load ptr, ptr %2, align 8
  call void @init_libpq_conn(ptr noundef %4)
  %5 = call ptr @pg_malloc0(i64 noundef 24144)
  store ptr %5, ptr %3, align 8
  %6 = load ptr, ptr %3, align 8
  %7 = getelementptr inbounds nuw %struct.libpq_source, ptr %6, i32 0, i32 0
  %8 = getelementptr inbounds nuw %struct.rewind_source, ptr %7, i32 0, i32 0
  store ptr @libpq_traverse_files, ptr %8, align 8
  %9 = load ptr, ptr %3, align 8
  %10 = getelementptr inbounds nuw %struct.libpq_source, ptr %9, i32 0, i32 0
  %11 = getelementptr inbounds nuw %struct.rewind_source, ptr %10, i32 0, i32 1
  store ptr @libpq_fetch_file, ptr %11, align 8
  %12 = load ptr, ptr %3, align 8
  %13 = getelementptr inbounds nuw %struct.libpq_source, ptr %12, i32 0, i32 0
  %14 = getelementptr inbounds nuw %struct.rewind_source, ptr %13, i32 0, i32 3
  store ptr @libpq_queue_fetch_file, ptr %14, align 8
  %15 = load ptr, ptr %3, align 8
  %16 = getelementptr inbounds nuw %struct.libpq_source, ptr %15, i32 0, i32 0
  %17 = getelementptr inbounds nuw %struct.rewind_source, ptr %16, i32 0, i32 2
  store ptr @libpq_queue_fetch_range, ptr %17, align 8
  %18 = load ptr, ptr %3, align 8
  %19 = getelementptr inbounds nuw %struct.libpq_source, ptr %18, i32 0, i32 0
  %20 = getelementptr inbounds nuw %struct.rewind_source, ptr %19, i32 0, i32 4
  store ptr @libpq_finish_fetch, ptr %20, align 8
  %21 = load ptr, ptr %3, align 8
  %22 = getelementptr inbounds nuw %struct.libpq_source, ptr %21, i32 0, i32 0
  %23 = getelementptr inbounds nuw %struct.rewind_source, ptr %22, i32 0, i32 5
  store ptr @libpq_get_current_wal_insert_lsn, ptr %23, align 8
  %24 = load ptr, ptr %3, align 8
  %25 = getelementptr inbounds nuw %struct.libpq_source, ptr %24, i32 0, i32 0
  %26 = getelementptr inbounds nuw %struct.rewind_source, ptr %25, i32 0, i32 6
  store ptr @libpq_destroy, ptr %26, align 8
  %27 = load ptr, ptr %2, align 8
  %28 = load ptr, ptr %3, align 8
  %29 = getelementptr inbounds nuw %struct.libpq_source, ptr %28, i32 0, i32 1
  store ptr %27, ptr %29, align 8
  %30 = load ptr, ptr %3, align 8
  %31 = getelementptr inbounds nuw %struct.libpq_source, ptr %30, i32 0, i32 4
  call void @initStringInfo(ptr noundef %31)
  %32 = load ptr, ptr %3, align 8
  %33 = getelementptr inbounds nuw %struct.libpq_source, ptr %32, i32 0, i32 5
  call void @initStringInfo(ptr noundef %33)
  %34 = load ptr, ptr %3, align 8
  %35 = getelementptr inbounds nuw %struct.libpq_source, ptr %34, i32 0, i32 6
  call void @initStringInfo(ptr noundef %35)
  %36 = load ptr, ptr %3, align 8
  %37 = getelementptr inbounds nuw %struct.libpq_source, ptr %36, i32 0, i32 0
  call void @llvm.lifetime.end.p0(i64 8, ptr %3) #10
  ret ptr %37
}