; Function Attrs: nounwind uwtable
define dso_local noundef ptr @init_libpq_source(ptr noundef %0) local_unnamed_addr #0 {
  %2 = tail call ptr @PQexec(ptr noundef %0, ptr noundef nonnull @.str) #10
  %3 = tail call i32 @PQresultStatus(ptr noundef %2) #10
  %.not.i.i = icmp eq i32 %3, 1
  br i1 %.not.i.i, label %run_simple_command.exit.i, label %4

4:                                                ; preds = %1
  %5 = tail call ptr @PQresultErrorMessage(ptr noundef %2) #10
  tail call void (i32, i32, ptr, ...) @pg_log_generic(i32 noundef 4, i32 noundef 0, ptr noundef nonnull @.str.13, ptr noundef nonnull @.str, ptr noundef %5) #10
  tail call void @exit(i32 noundef 1) #11
  unreachable

run_simple_command.exit.i:                        ; preds = %1
  tail call void @PQclear(ptr noundef %2) #10
  %6 = tail call ptr @PQexec(ptr noundef %0, ptr noundef nonnull @.str.1) #10
  %7 = tail call i32 @PQresultStatus(ptr noundef %6) #10
  %.not.i18.i = icmp eq i32 %7, 1
  br i1 %.not.i18.i, label %run_simple_command.exit19.i, label %8

8:                                                ; preds = %run_simple_command.exit.i
  %9 = tail call ptr @PQresultErrorMessage(ptr noundef %6) #10
  tail call void (i32, i32, ptr, ...) @pg_log_generic(i32 noundef 4, i32 noundef 0, ptr noundef nonnull @.str.13, ptr noundef nonnull @.str.1, ptr noundef %9) #10
  tail call void @exit(i32 noundef 1) #11
  unreachable

run_simple_command.exit19.i:                      ; preds = %run_simple_command.exit.i
  tail call void @PQclear(ptr noundef %6) #10
  %10 = tail call ptr @PQexec(ptr noundef %0, ptr noundef nonnull @.str.2) #10
  %11 = tail call i32 @PQresultStatus(ptr noundef %10) #10
  %.not.i20.i = icmp eq i32 %11, 1
  br i1 %.not.i20.i, label %run_simple_command.exit21.i, label %12

12:                                               ; preds = %run_simple_command.exit19.i
  %13 = tail call ptr @PQresultErrorMessage(ptr noundef %10) #10
  tail call void (i32, i32, ptr, ...) @pg_log_generic(i32 noundef 4, i32 noundef 0, ptr noundef nonnull @.str.13, ptr noundef nonnull @.str.2, ptr noundef %13) #10
  tail call void @exit(i32 noundef 1) #11
  unreachable

run_simple_command.exit21.i:                      ; preds = %run_simple_command.exit19.i
  tail call void @PQclear(ptr noundef %10) #10
  %14 = tail call ptr @PQexec(ptr noundef %0, ptr noundef nonnull @.str.3) #10
  %15 = tail call i32 @PQresultStatus(ptr noundef %14) #10
  %.not.i22.i = icmp eq i32 %15, 1
  br i1 %.not.i22.i, label %run_simple_command.exit23.i, label %16

16:                                               ; preds = %run_simple_command.exit21.i
  %17 = tail call ptr @PQresultErrorMessage(ptr noundef %14) #10
  tail call void (i32, i32, ptr, ...) @pg_log_generic(i32 noundef 4, i32 noundef 0, ptr noundef nonnull @.str.13, ptr noundef nonnull @.str.3, ptr noundef %17) #10
  tail call void @exit(i32 noundef 1) #11
  unreachable

run_simple_command.exit23.i:                      ; preds = %run_simple_command.exit21.i
  tail call void @PQclear(ptr noundef %14) #10
  %18 = tail call ptr @PQexec(ptr noundef %0, ptr noundef nonnull @.str.4) #10
  %19 = tail call i32 @PQresultStatus(ptr noundef %18) #10
  %.not.i24.i = icmp eq i32 %19, 1
  br i1 %.not.i24.i, label %run_simple_command.exit25.i, label %20

20:                                               ; preds = %run_simple_command.exit23.i
  %21 = tail call ptr @PQresultErrorMessage(ptr noundef %18) #10
  tail call void (i32, i32, ptr, ...) @pg_log_generic(i32 noundef 4, i32 noundef 0, ptr noundef nonnull @.str.13, ptr noundef nonnull @.str.4, ptr noundef %21) #10
  tail call void @exit(i32 noundef 1) #11
  unreachable

run_simple_command.exit25.i:                      ; preds = %run_simple_command.exit23.i
  tail call void @PQclear(ptr noundef %18) #10
  %22 = tail call ptr @PQexec(ptr noundef %0, ptr noundef nonnull @.str.5) #10
  %23 = tail call i32 @PQresultStatus(ptr noundef %22) #10
  %.not.i = icmp eq i32 %23, 2
  br i1 %.not.i, label %sub_0.i, label %24

24:                                               ; preds = %run_simple_command.exit25.i
  %25 = tail call ptr @PQresultErrorMessage(ptr noundef %22) #10
  tail call void (i32, i32, ptr, ...) @pg_log_generic(i32 noundef 4, i32 noundef 0, ptr noundef nonnull @.str.6, ptr noundef %25) #10
  tail call void @exit(i32 noundef 1) #11
  unreachable

sub_0.i:                                          ; preds = %run_simple_command.exit25.i
  tail call void @PQclear(ptr noundef %22) #10
  %26 = tail call fastcc ptr @run_simple_query(ptr noundef %0, ptr noundef nonnull @.str.7)
  %27 = load i8, ptr %26, align 1
  %.not26.i = icmp eq i8 %27, 111
  br i1 %.not26.i, label %sub_1.i, label %.tail.thread.i

sub_1.i:                                          ; preds = %sub_0.i
  %28 = getelementptr inbounds nuw i8, ptr %26, i64 1
  %29 = load i8, ptr %28, align 1
  %.not27.i = icmp eq i8 %29, 110
  br i1 %.not27.i, label %.tail.i, label %.tail.thread.i

.tail.i:                                          ; preds = %sub_1.i
  %30 = getelementptr inbounds nuw i8, ptr %26, i64 2
  %31 = load i8, ptr %30, align 1
  %32 = icmp eq i8 %31, 0
  br i1 %32, label %33, label %.tail.thread.i

.tail.thread.i:                                   ; preds = %.tail.i, %sub_1.i, %sub_0.i
  tail call void (i32, i32, ptr, ...) @pg_log_generic(i32 noundef 4, i32 noundef 0, ptr noundef nonnull @.str.9) #10
  tail call void @exit(i32 noundef 1) #11
  unreachable

33:                                               ; preds = %.tail.i
  tail call void @pg_free(ptr noundef nonnull %26) #10
  %34 = tail call ptr @PQprepare(ptr noundef %0, ptr noundef nonnull @.str.10, ptr noundef nonnull @.str.11, i32 noundef 3, ptr noundef null) #10
  %35 = tail call i32 @PQresultStatus(ptr noundef %34) #10
  %.not17.i = icmp eq i32 %35, 1
  br i1 %.not17.i, label %init_libpq_conn.exit, label %36

36:                                               ; preds = %33
  %37 = tail call ptr @PQresultErrorMessage(ptr noundef %34) #10
  tail call void (i32, i32, ptr, ...) @pg_log_generic(i32 noundef 4, i32 noundef 0, ptr noundef nonnull @.str.12, ptr noundef %37) #10
  tail call void @exit(i32 noundef 1) #11
  unreachable

init_libpq_conn.exit:                             ; preds = %33
  tail call void @PQclear(ptr noundef %34) #10
  %38 = tail call ptr @pg_malloc0(i64 noundef 24144) #10
  store ptr @libpq_traverse_files, ptr %38, align 8
  %39 = getelementptr inbounds nuw i8, ptr %38, i64 8
  store ptr @libpq_fetch_file, ptr %39, align 8
  %40 = getelementptr inbounds nuw i8, ptr %38, i64 24
  store ptr @libpq_queue_fetch_file, ptr %40, align 8
  %41 = getelementptr inbounds nuw i8, ptr %38, i64 16
  store ptr @libpq_queue_fetch_range, ptr %41, align 8
  %42 = getelementptr inbounds nuw i8, ptr %38, i64 32
  store ptr @libpq_finish_fetch, ptr %42, align 8
  %43 = getelementptr inbounds nuw i8, ptr %38, i64 40
  store ptr @libpq_get_current_wal_insert_lsn, ptr %43, align 8
  %44 = getelementptr inbounds nuw i8, ptr %38, i64 48
  store ptr @libpq_destroy, ptr %44, align 8
  %45 = getelementptr inbounds nuw i8, ptr %38, i64 56
  store ptr %0, ptr %45, align 8
  %46 = getelementptr inbounds nuw i8, ptr %38, i64 24072
  tail call void @initStringInfo(ptr noundef nonnull %46) #10
  %47 = getelementptr inbounds nuw i8, ptr %38, i64 24096
  tail call void @initStringInfo(ptr noundef nonnull %47) #10
  %48 = getelementptr inbounds nuw i8, ptr %38, i64 24120
  tail call void @initStringInfo(ptr noundef nonnull %48) #10
  ret ptr %38
}